target datalayout = "e-m:e-p270:32:32-p271:32:32-p272:64:64-i64:64-i128:128-f80:128-n8:16:32:64-S128"
target triple = "x86_64-pc-linux-gnu"

@.str.56 = private unnamed_addr constant [14 x i8] c"ui_last/theme\00", align 1
@.str.62 = private unnamed_addr constant [10 x i8] c"font_size\00", align 1

; Function Attrs: nounwind uwtable
define internal void @reload_ui_last_theme() #0 {
  %1 = alloca ptr, align 8
  call void @llvm.lifetime.start.p0(i64 8, ptr %1) #10
  %2 = call ptr @dt_conf_get_string_const(ptr noundef @.str.56)
  store ptr %2, ptr %1, align 8, !tbaa !73
  %3 = load ptr, ptr %1, align 8, !tbaa !73
  call void @dt_gui_load_theme(ptr noundef %3)
  call void (...) @dt_bauhaus_load_theme()
  call void @llvm.lifetime.end.p0(i64 8, ptr %1) #10
  ret void
}

; Function Attrs: nounwind uwtable
define internal void @font_size_changed_callback(ptr noundef %0, ptr noundef %1) #0 {
  %3 = alloca ptr, align 8
  %4 = alloca ptr, align 8
  store ptr %0, ptr %3, align 8, !tbaa !6
  store ptr %1, ptr %4, align 8, !tbaa !61
  %5 = load ptr, ptr %3, align 8, !tbaa !6
  %6 = call i64 @gtk_spin_button_get_type() #11
  %7 = call ptr @g_type_check_instance_cast(ptr noundef %5, i64 noundef %6)
  %8 = call reassoc nsz arcp contract afn double @gtk_spin_button_get_value(ptr noundef %7)
  %9 = fptrunc reassoc nsz arcp contract afn double %8 to float
  call void @dt_conf_set_float(ptr noundef @.str.62, float noundef %9)
  call void @reload_ui_last_theme()
  ret void
}