; Function Attrs: nounwind uwtable
define internal void @font_size_changed_callback(ptr noundef %0, ptr readnone captures(none) %1) #0 {
  %3 = tail call i64 @gtk_spin_button_get_type() #13
  %4 = tail call ptr @g_type_check_instance_cast(ptr noundef %0, i64 noundef %3) #12
  %5 = tail call reassoc nsz arcp contract afn double @gtk_spin_button_get_value(ptr noundef %4) #12
  %6 = fptrunc reassoc nsz arcp contract afn double %5 to float
  tail call void @dt_conf_set_float(ptr noundef nonnull @.str.62, float noundef %6) #12
  %7 = tail call ptr @dt_conf_get_string_const(ptr noundef nonnull @.str.56) #12
  tail call void @dt_gui_load_theme(ptr noundef %7) #12
  tail call void (...) @dt_bauhaus_load_theme() #12
  ret void
}